target datalayout = "e-m:e-p270:32:32-p271:32:32-p272:64:64-i64:64-i128:128-f80:128-n8:16:32:64-S128"
target triple = "x86_64-pc-linux-gnu"

%class.ZMark = type <{ ptr, ptr, [48 x i8], %class.ZMarkStackAllocator, %class.ZMarkStripeSet, %class.ZMarkTerminate, i64, i64, i64, i64, i64, i64, i32, [36 x i8] }>
%class.ZMarkStackAllocator = type <{ [64 x i8], %class.ZMarkStackSpace, [56 x i8], %class.ZStackList, i8, [63 x i8] }>
%class.ZMarkStackSpace = type <{ %class.ZLock, i64, i64, i64, i8, [7 x i8] }>
%class.ZLock = type { %class.PlatformMutex }
%class.PlatformMutex = type { %union.pthread_mutex_t }
%union.pthread_mutex_t = type { %struct.__pthread_mutex_s }
%struct.__pthread_mutex_s = type { i32, i32, i32, i32, i32, i16, i16, %struct.__pthread_internal_list }
%struct.__pthread_internal_list = type { ptr, ptr }
%class.ZStackList = type { i64, ptr, [48 x i8] }
%class.ZMarkStripeSet = type { i64, [56 x i8], [16 x %class.ZMarkStripe] }
%class.ZMarkStripe = type { %class.ZStackList.1, %class.ZStackList.1 }
%class.ZStackList.1 = type { i64, ptr, [48 x i8] }
%class.ZMarkTerminate = type { i32, i32, i32, i8, %class.ZConditionLock }
%class.ZConditionLock = type { %class.PlatformMonitor }
%class.PlatformMonitor = type { %class.PlatformMutex, %union.pthread_cond_t }
%union.pthread_cond_t = type { %struct.__pthread_cond_s }
%struct.__pthread_cond_s = type { %union.__atomic_wide_counter, %union.__atomic_wide_counter, [2 x i32], [2 x i32], i32, i32, [2 x i32] }
%union.__atomic_wide_counter = type { i64 }
%class.ZTask = type { ptr, %"class.ZTask::Task" }
%"class.ZTask::Task" = type { %class.WorkerTask.base, ptr }
%class.WorkerTask.base = type <{ ptr, ptr, i32 }>
%class.ZMarkTask = type { %class.ZRestartableTask, ptr }
%class.ZRestartableTask = type { %class.ZTask }
%"struct.Atomic::StoreImpl" = type { i8 }
%"struct.Atomic::PlatformStore" = type { i8 }
%"struct.Atomic::LoadImpl.65" = type { i8 }
%"struct.Atomic::PlatformLoad.66" = type { i8 }

@_ZN6ZAbort13_should_abortE = external global i8, align 1
@.str.33 = private unnamed_addr constant [10 x i8] c"ZMarkTask\00", align 1
@_ZTV9ZMarkTask = linkonce_odr hidden unnamed_addr constant { [4 x ptr] } { [4 x ptr] [ptr null, ptr null, ptr @_ZN9ZMarkTask4workEv, ptr @_ZN9ZMarkTask14resize_workersEj] }, comdat, align 8

; Function Attrs: mustprogress nounwind uwtable
define linkonce_odr hidden noundef i32 @_ZN21CountLeadingZerosImplIjLm4EE4doitEj(i32 noundef %0) #1 comdat align 2 {
  %2 = alloca i32, align 4
  store i32 %0, ptr %2, align 4
  %3 = load i32, ptr %2, align 4
  %4 = call i32 @llvm.ctlz.i32(i32 %3, i1 true)
  ret i32 %4
}

; Function Attrs: mustprogress nounwind uwtable
define linkonce_odr hidden void @_ZNK6Atomic13PlatformStoreILm4EEclIjEEvPVT_S3_(ptr noundef nonnull align 1 dereferenceable(1) %0, ptr noundef %1, i32 noundef %2) #1 comdat align 2 {
  %4 = alloca ptr, align 8
  %5 = alloca ptr, align 8
  %6 = alloca i32, align 4
  store ptr %0, ptr %4, align 8
  store ptr %1, ptr %5, align 8
  store i32 %2, ptr %6, align 4
  %7 = load i32, ptr %6, align 4
  %8 = load ptr, ptr %5, align 8
  store volatile i32 %7, ptr %8, align 4
  ret void
}

; Function Attrs: mustprogress nounwind uwtable
define linkonce_odr hidden noundef i32 @_Z19count_leading_zerosIjEjT_(i32 noundef %0) #1 comdat {
  %2 = alloca i32, align 4
  store i32 %0, ptr %2, align 4
  %3 = load i32, ptr %2, align 4
  %4 = call noundef i32 @_ZN21CountLeadingZerosImplIjLm4EE4doitEj(i32 noundef %3)
  ret i32 %4
}

; Function Attrs: mustprogress nounwind uwtable
define linkonce_odr hidden void @_ZNK6Atomic9StoreImplIjjNS_13PlatformStoreILm4EEEvEclEPVjj(ptr noundef nonnull align 1 dereferenceable(1) %0, ptr noundef %1, i32 noundef %2) #1 comdat align 2 {
  %4 = alloca ptr, align 8
  %5 = alloca ptr, align 8
  %6 = alloca i32, align 4
  %7 = alloca %"struct.Atomic::PlatformStore", align 1
  store ptr %0, ptr %4, align 8
  store ptr %1, ptr %5, align 8
  store i32 %2, ptr %6, align 4
  %8 = load ptr, ptr %5, align 8
  %9 = load i32, ptr %6, align 4
  call void @_ZNK6Atomic13PlatformStoreILm4EEclIjEEvPVT_S3_(ptr noundef nonnull align 1 dereferenceable(1) %7, ptr noundef %8, i32 noundef %9)
  ret void
}

; Function Attrs: mustprogress nounwind uwtable
define linkonce_odr hidden noundef i32 @_Z5log2iIjTnNSt9enable_ifIXcvbsr3std11is_integralIT_EE5valueEiE4typeELi0EEiS1_(i32 noundef %0) #1 comdat {
  %2 = alloca i32, align 4
  %3 = alloca i32, align 4
  store i32 %0, ptr %2, align 4
  store i32 32, ptr %3, align 4
  %4 = load i32, ptr %2, align 4
  %5 = call noundef i32 @_Z19count_leading_zerosIjEjT_(i32 noundef %4)
  %6 = sub i32 32, %5
  %7 = sub i32 %6, 1
  ret i32 %7
}

; Function Attrs: mustprogress nounwind uwtable
define linkonce_odr hidden noundef zeroext i1 @_ZNK6Atomic12PlatformLoadILm1EEclIbEET_PVKS3_(ptr noundef nonnull align 1 dereferenceable(1) %0, ptr noundef %1) #1 comdat align 2 {
  %3 = alloca ptr, align 8
  %4 = alloca ptr, align 8
  store ptr %0, ptr %3, align 8
  store ptr %1, ptr %4, align 8
  %5 = load ptr, ptr %4, align 8
  %6 = load volatile i8, ptr %5, align 1
  %7 = trunc i8 %6 to i1
  ret i1 %7
}

; Function Attrs: mustprogress nounwind uwtable
define linkonce_odr hidden void @_ZN6Atomic5storeIjjEEvPVT_T0_(ptr noundef %0, i32 noundef %1) #1 comdat align 2 {
  %3 = alloca ptr, align 8
  %4 = alloca i32, align 4
  %5 = alloca %"struct.Atomic::StoreImpl", align 1
  store ptr %0, ptr %3, align 8
  store i32 %1, ptr %4, align 4
  %6 = load ptr, ptr %3, align 8
  %7 = load i32, ptr %4, align 4
  call void @_ZNK6Atomic9StoreImplIjjNS_13PlatformStoreILm4EEEvEclEPVjj(ptr noundef nonnull align 1 dereferenceable(1) %5, ptr noundef %6, i32 noundef %7)
  ret void
}

; Function Attrs: mustprogress nounwind uwtable
define linkonce_odr hidden noundef i64 @_Z4MIN2ImET_S0_S0_(i64 noundef %0, i64 noundef %1) #1 comdat {
  %3 = alloca i64, align 8
  %4 = alloca i64, align 8
  store i64 %0, ptr %3, align 8
  store i64 %1, ptr %4, align 8
  %5 = load i64, ptr %3, align 8
  %6 = load i64, ptr %4, align 8
  %7 = icmp ult i64 %5, %6
  br i1 %7, label %8, label %10

8:                                                ; preds = %2
  %9 = load i64, ptr %3, align 8
  br label %12

10:                                               ; preds = %2
  %11 = load i64, ptr %4, align 8
  br label %12

12:                                               ; preds = %10, %8
  %13 = phi i64 [ %9, %8 ], [ %11, %10 ]
  ret i64 %13
}

; Function Attrs: mustprogress nounwind uwtable
define linkonce_odr hidden noundef i32 @_Z21round_down_power_of_2IjTnNSt9enable_ifIXcvbsr3std11is_integralIT_EE5valueEiE4typeELi0EES1_S1_(i32 noundef %0) #1 comdat {
  %2 = alloca i32, align 4
  store i32 %0, ptr %2, align 4
  %3 = load i32, ptr %2, align 4
  %4 = call noundef i32 @_Z5log2iIjTnNSt9enable_ifIXcvbsr3std11is_integralIT_EE5valueEiE4typeELi0EEiS1_(i32 noundef %3)
  %5 = shl i32 1, %4
  ret i32 %5
}

; Function Attrs: mustprogress nounwind uwtable
define linkonce_odr hidden noundef zeroext i1 @_ZNK6Atomic8LoadImplIbNS_12PlatformLoadILm1EEEvEclEPVKb(ptr noundef nonnull align 1 dereferenceable(1) %0, ptr noundef %1) #1 comdat align 2 {
  %3 = alloca ptr, align 8
  %4 = alloca ptr, align 8
  %5 = alloca %"struct.Atomic::PlatformLoad.66", align 1
  store ptr %0, ptr %3, align 8
  store ptr %1, ptr %4, align 8
  %6 = load ptr, ptr %4, align 8
  %7 = call noundef zeroext i1 @_ZNK6Atomic12PlatformLoadILm1EEclIbEET_PVKS3_(ptr noundef nonnull align 1 dereferenceable(1) %5, ptr noundef %6)
  ret i1 %7
}

; Function Attrs: mustprogress nounwind uwtable
define linkonce_odr hidden void @_ZN14ZMarkTerminate5resetEj(ptr noundef nonnull align 8 dereferenceable(104) %0, i32 noundef %1) #1 comdat align 2 {
  %3 = alloca ptr, align 8
  %4 = alloca i32, align 4
  store ptr %0, ptr %3, align 8
  store i32 %1, ptr %4, align 4
  %5 = load ptr, ptr %3, align 8
  %6 = getelementptr inbounds %class.ZMarkTerminate, ptr %5, i32 0, i32 0
  %7 = load i32, ptr %4, align 4
  call void @_ZN6Atomic5storeIjjEEvPVT_T0_(ptr noundef %6, i32 noundef %7)
  %8 = getelementptr inbounds %class.ZMarkTerminate, ptr %5, i32 0, i32 1
  %9 = load i32, ptr %4, align 4
  call void @_ZN6Atomic5storeIjjEEvPVT_T0_(ptr noundef %8, i32 noundef %9)
  %10 = getelementptr inbounds %class.ZMarkTerminate, ptr %5, i32 0, i32 2
  store volatile i32 0, ptr %10, align 8
  ret void
}

; Function Attrs: mustprogress nounwind uwtable
define hidden noundef i64 @_ZNK5ZMark18calculate_nstripesEj(ptr noundef nonnull align 64 dereferenceable(2652) %0, i32 noundef %1) #1 align 2 {
  %3 = alloca ptr, align 8
  %4 = alloca i32, align 4
  %5 = alloca i64, align 8
  store ptr %0, ptr %3, align 8
  store i32 %1, ptr %4, align 4
  %6 = load i32, ptr %4, align 4
  %7 = call noundef i32 @_Z21round_down_power_of_2IjTnNSt9enable_ifIXcvbsr3std11is_integralIT_EE5valueEiE4typeELi0EES1_S1_(i32 noundef %6)
  %8 = zext i32 %7 to i64
  store i64 %8, ptr %5, align 8
  %9 = load i64, ptr %5, align 8
  %10 = call noundef i64 @_Z4MIN2ImET_S0_S0_(i64 noundef %9, i64 noundef 16)
  ret i64 %10
}

; Function Attrs: mustprogress nounwind uwtable
define hidden void @_ZN5ZMark11finish_workEv(ptr noundef nonnull align 64 dereferenceable(2652) %0) #1 align 2 {
  %2 = alloca ptr, align 8
  store ptr %0, ptr %2, align 8
  %3 = load ptr, ptr %2, align 8
  %4 = getelementptr inbounds %class.ZMark, ptr %3, i32 0, i32 6
  %5 = load volatile i64, ptr %4, align 8
  %6 = getelementptr inbounds %class.ZMark, ptr %3, i32 0, i32 8
  %7 = load i64, ptr %6, align 8
  %8 = add i64 %7, %5
  store i64 %8, ptr %6, align 8
  %9 = getelementptr inbounds %class.ZMark, ptr %3, i32 0, i32 7
  %10 = load volatile i64, ptr %9, align 16
  %11 = getelementptr inbounds %class.ZMark, ptr %3, i32 0, i32 9
  %12 = load i64, ptr %11, align 64
  %13 = add i64 %12, %10
  store i64 %13, ptr %11, align 64
  ret void
}

; Function Attrs: mustprogress nounwind uwtable
define linkonce_odr hidden noundef zeroext i1 @_ZN6Atomic4loadIbEET_PVKS1_(ptr noundef %0) #1 comdat align 2 {
  %2 = alloca ptr, align 8
  %3 = alloca %"struct.Atomic::LoadImpl.65", align 1
  store ptr %0, ptr %2, align 8
  %4 = load ptr, ptr %2, align 8
  %5 = call noundef zeroext i1 @_ZNK6Atomic8LoadImplIbNS_12PlatformLoadILm1EEEvEclEPVKb(ptr noundef nonnull align 1 dereferenceable(1) %3, ptr noundef %4)
  ret i1 %5
}

; Function Attrs: mustprogress nounwind uwtable
define hidden void @_ZN5ZMark12prepare_workEv(ptr noundef nonnull align 64 dereferenceable(2652) %0) #1 align 2 {
  %2 = alloca ptr, align 8
  %3 = alloca i64, align 8
  store ptr %0, ptr %2, align 8
  %4 = load ptr, ptr %2, align 8
  %5 = call noundef ptr @_ZNK5ZMark7workersEv(ptr noundef nonnull align 64 dereferenceable(2652) %4)
  %6 = call noundef i32 @_ZNK8ZWorkers14active_workersEv(ptr noundef nonnull align 8 dereferenceable(184) %5)
  %7 = getelementptr inbounds %class.ZMark, ptr %4, i32 0, i32 12
  store i32 %6, ptr %7, align 8
  %8 = getelementptr inbounds %class.ZMark, ptr %4, i32 0, i32 12
  %9 = load i32, ptr %8, align 8
  %10 = call noundef i64 @_ZNK5ZMark18calculate_nstripesEj(ptr noundef nonnull align 64 dereferenceable(2652) %4, i32 noundef %9)
  store i64 %10, ptr %3, align 8
  %11 = getelementptr inbounds %class.ZMark, ptr %4, i32 0, i32 4
  %12 = load i64, ptr %3, align 8
  call void @_ZN14ZMarkStripeSet12set_nstripesEm(ptr noundef nonnull align 64 dereferenceable(2112) %11, i64 noundef %12)
  %13 = getelementptr inbounds %class.ZMark, ptr %4, i32 0, i32 5
  %14 = getelementptr inbounds %class.ZMark, ptr %4, i32 0, i32 12
  %15 = load i32, ptr %14, align 8
  call void @_ZN14ZMarkTerminate5resetEj(ptr noundef nonnull align 8 dereferenceable(104) %13, i32 noundef %15)
  %16 = getelementptr inbounds %class.ZMark, ptr %4, i32 0, i32 7
  store volatile i64 0, ptr %16, align 16
  %17 = load volatile i64, ptr %16, align 16
  %18 = getelementptr inbounds %class.ZMark, ptr %4, i32 0, i32 6
  store volatile i64 %17, ptr %18, align 8
  ret void
}

; Function Attrs: mustprogress nounwind uwtable
define linkonce_odr hidden void @_ZN9ZMarkTaskD2Ev(ptr noundef nonnull align 8 dereferenceable(48) %0) unnamed_addr #1 comdat align 2 {
  %2 = alloca ptr, align 8
  store ptr %0, ptr %2, align 8
  %3 = load ptr, ptr %2, align 8
  store ptr getelementptr inbounds inrange(-16, 16) ({ [4 x ptr] }, ptr @_ZTV9ZMarkTask, i32 0, i32 0, i32 2), ptr %3, align 8
  %4 = getelementptr inbounds %class.ZMarkTask, ptr %3, i32 0, i32 1
  %5 = load ptr, ptr %4, align 8
  call void @_ZN5ZMark11finish_workEv(ptr noundef nonnull align 64 dereferenceable(2652) %5)
  ret void
}

; Function Attrs: mustprogress nounwind uwtable
define linkonce_odr hidden noundef zeroext i1 @_ZN6ZAbort12should_abortEv() #1 comdat align 2 {
  %1 = call noundef zeroext i1 @_ZN6Atomic4loadIbEET_PVKS1_(ptr noundef @_ZN6ZAbort13_should_abortE)
  ret i1 %1
}

; Function Attrs: mustprogress nounwind uwtable
define hidden noundef ptr @_ZNK5ZMark7workersEv(ptr noundef nonnull align 64 dereferenceable(2652) %0) #1 align 2 {
  %2 = alloca ptr, align 8
  store ptr %0, ptr %2, align 8
  %3 = load ptr, ptr %2, align 8
  %4 = getelementptr inbounds %class.ZMark, ptr %3, i32 0, i32 0
  %5 = load ptr, ptr %4, align 64
  %6 = call noundef ptr @_ZN11ZGeneration7workersEv(ptr noundef nonnull align 64 dereferenceable(6592) %5)
  ret ptr %6
}

; Function Attrs: mustprogress nounwind uwtable
define linkonce_odr hidden void @_ZN9ZMarkTaskC2EP5ZMark(ptr noundef nonnull align 8 dereferenceable(48) %0, ptr noundef %1) unnamed_addr #1 comdat align 2 {
  %3 = alloca ptr, align 8
  %4 = alloca ptr, align 8
  store ptr %0, ptr %3, align 8
  store ptr %1, ptr %4, align 8
  %5 = load ptr, ptr %3, align 8
  call void @_ZN16ZRestartableTaskC2EPKc(ptr noundef nonnull align 8 dereferenceable(40) %5, ptr noundef @.str.33)
  store ptr getelementptr inbounds inrange(-16, 16) ({ [4 x ptr] }, ptr @_ZTV9ZMarkTask, i32 0, i32 0, i32 2), ptr %5, align 8
  %6 = getelementptr inbounds %class.ZMarkTask, ptr %5, i32 0, i32 1
  %7 = load ptr, ptr %4, align 8
  store ptr %7, ptr %6, align 8
  %8 = getelementptr inbounds %class.ZMarkTask, ptr %5, i32 0, i32 1
  %9 = load ptr, ptr %8, align 8
  call void @_ZN5ZMark12prepare_workEv(ptr noundef nonnull align 64 dereferenceable(2652) %9)
  ret void
}

; Function Attrs: mustprogress nounwind uwtable
define hidden void @_ZN5ZMark11mark_followEv(ptr noundef nonnull align 64 dereferenceable(2652) %0) #1 align 2 {
  %2 = alloca ptr, align 8
  %3 = alloca %class.ZMarkTask, align 8
  %4 = alloca i32, align 4
  store ptr %0, ptr %2, align 8
  %5 = load ptr, ptr %2, align 8
  br label %6

6:                                                ; preds = %15, %1
  call void @_ZN9ZMarkTaskC2EP5ZMark(ptr noundef nonnull align 8 dereferenceable(48) %3, ptr noundef %5)
  %7 = call noundef ptr @_ZNK5ZMark7workersEv(ptr noundef nonnull align 64 dereferenceable(2652) %5)
  call void @_ZN8ZWorkers3runEP16ZRestartableTask(ptr noundef nonnull align 8 dereferenceable(184) %7, ptr noundef %3)
  %8 = call noundef zeroext i1 @_ZN6ZAbort12should_abortEv()
  br i1 %8, label %11, label %9

9:                                                ; preds = %6
  %10 = call noundef zeroext i1 @_ZN5ZMark19try_terminate_flushEv(ptr noundef nonnull align 64 dereferenceable(2652) %5)
  br i1 %10, label %12, label %11

11:                                               ; preds = %9, %6
  store i32 2, ptr %4, align 4
  br label %13

12:                                               ; preds = %9
  store i32 0, ptr %4, align 4
  br label %13

13:                                               ; preds = %12, %11
  call void @_ZN9ZMarkTaskD2Ev(ptr noundef nonnull align 8 dereferenceable(48) %3) #11
  %14 = load i32, ptr %4, align 4
  switch i32 %14, label %17 [
    i32 0, label %15
    i32 2, label %16
  ]

15:                                               ; preds = %13
  br label %6, !llvm.loop !14

16:                                               ; preds = %13
  ret void

17:                                               ; preds = %13
  unreachable
}