; Function Attrs: mustprogress nounwind uwtable
define hidden void @_ZN5ZMark11mark_followEv(ptr noundef nonnull align 64 dereferenceable(2652) %0) local_unnamed_addr #0 align 2 {
  %2 = alloca %class.ZMarkTask, align 8
  %3 = getelementptr inbounds i8, ptr %2, i64 40
  %4 = getelementptr inbounds i8, ptr %0, i64 2648
  %5 = getelementptr inbounds i8, ptr %0, i64 384
  %6 = getelementptr inbounds i8, ptr %0, i64 2496
  %7 = getelementptr inbounds i8, ptr %0, i64 2500
  %8 = getelementptr inbounds i8, ptr %0, i64 2504
  %9 = getelementptr inbounds i8, ptr %0, i64 2608
  %10 = getelementptr inbounds i8, ptr %0, i64 2600
  br label %11

11:                                               ; preds = %select.unfold, %1
  call void @_ZN16ZRestartableTaskC2EPKc(ptr noundef nonnull align 8 dereferenceable(40) %2, ptr noundef nonnull @.str.33) #15
  store ptr getelementptr inbounds inrange(-16, 16) (i8, ptr @_ZTV9ZMarkTask, i64 16), ptr %2, align 8
  store ptr %0, ptr %3, align 8
  %12 = load ptr, ptr %0, align 64
  %13 = call noundef ptr @_ZN11ZGeneration7workersEv(ptr noundef nonnull align 64 dereferenceable(6592) %12) #15
  %14 = call noundef i32 @_ZNK8ZWorkers14active_workersEv(ptr noundef nonnull align 8 dereferenceable(184) %13) #15
  store i32 %14, ptr %4, align 8
  %15 = call noundef range(i32 0, 33) i32 @llvm.ctlz.i32(i32 %14, i1 true)
  %16 = xor i32 %15, 31
  %17 = shl nuw i32 1, %16
  %18 = call i32 @llvm.umin.i32(i32 %17, i32 16)
  %19 = zext nneg i32 %18 to i64
  call void @_ZN14ZMarkStripeSet12set_nstripesEm(ptr noundef nonnull align 64 dereferenceable(2112) %5, i64 noundef %19) #15
  %20 = load i32, ptr %4, align 8
  store volatile i32 %20, ptr %6, align 64
  store volatile i32 %20, ptr %7, align 4
  store volatile i32 0, ptr %8, align 8
  store volatile i64 0, ptr %9, align 16
  %21 = load volatile i64, ptr %9, align 16
  store volatile i64 %21, ptr %10, align 8
  %22 = load ptr, ptr %0, align 64
  %23 = call noundef ptr @_ZN11ZGeneration7workersEv(ptr noundef nonnull align 64 dereferenceable(6592) %22) #15
  call void @_ZN8ZWorkers3runEP16ZRestartableTask(ptr noundef nonnull align 8 dereferenceable(184) %23, ptr noundef nonnull %2) #15
  %24 = load volatile i8, ptr @_ZN6ZAbort13_should_abortE, align 1
  %25 = trunc i8 %24 to i1
  br i1 %25, label %select.unfold, label %26

26:                                               ; preds = %11
  %27 = call noundef zeroext i1 @_ZN5ZMark19try_terminate_flushEv(ptr noundef nonnull align 64 dereferenceable(2652) %0)
  br label %select.unfold

select.unfold:                                    ; preds = %26, %11
  %.0 = phi i1 [ false, %11 ], [ %27, %26 ]
  store ptr getelementptr inbounds inrange(-16, 16) (i8, ptr @_ZTV9ZMarkTask, i64 16), ptr %2, align 8
  %28 = load ptr, ptr %3, align 8
  %29 = getelementptr inbounds i8, ptr %28, i64 2600
  %30 = load volatile i64, ptr %29, align 8
  %31 = getelementptr inbounds i8, ptr %28, i64 2616
  %32 = load i64, ptr %31, align 8
  %33 = add i64 %32, %30
  store i64 %33, ptr %31, align 8
  %34 = getelementptr inbounds i8, ptr %28, i64 2608
  %35 = load volatile i64, ptr %34, align 16
  %36 = getelementptr inbounds i8, ptr %28, i64 2624
  %37 = load i64, ptr %36, align 64
  %38 = add i64 %37, %35
  store i64 %38, ptr %36, align 64
  br i1 %.0, label %11, label %39

39:                                               ; preds = %select.unfold
  ret void
}